target datalayout = "e-m:e-p270:32:32-p271:32:32-p272:64:64-i64:64-i128:128-f80:128-n8:16:32:64-S128"
target triple = "x86_64-pc-linux-gnu"

%struct.pmix_proc = type { [256 x i8], i32 }
%struct.pmix_info = type { [512 x i8], i32, %struct.pmix_value }
%struct.pmix_value = type { i16, %union.anon }
%union.anon = type { %struct.pmix_envar_t }
%struct.pmix_envar_t = type { ptr, ptr, i8 }

@prte_tool_basename = external global ptr, align 8
@stderr = external global ptr, align 8
@verbose = internal global i8 0, align 1
@spawnednspace = internal global [256 x i8] zeroinitializer, align 16
@.str.137 = private unnamed_addr constant [33 x i8] c"%s: Forwarding signal %d to job\0A\00", align 1
@.str.138 = private unnamed_addr constant [15 x i8] c"pmix.jctrl.sig\00", align 1
@.str.139 = private unnamed_addr constant [52 x i8] c"Signal %d could not be sent to job %s (returned %s)\00", align 1

; Function Attrs: nounwind uwtable
define internal void @signal_forward_callback(i32 noundef %0, i16 noundef signext %1, ptr noundef %2) #0 {
  %4 = alloca i32, align 4
  %5 = alloca i16, align 2
  %6 = alloca ptr, align 8
  %7 = alloca i32, align 4
  %8 = alloca %struct.pmix_proc, align 4
  %9 = alloca %struct.pmix_info, align 8
  store i32 %0, ptr %4, align 4, !tbaa !4
  store i16 %1, ptr %5, align 2, !tbaa !159
  store ptr %2, ptr %6, align 8, !tbaa !30
  call void @llvm.lifetime.start.p0(i64 4, ptr %7) #12
  call void @llvm.lifetime.start.p0(i64 260, ptr %8) #12
  call void @llvm.lifetime.start.p0(i64 552, ptr %9) #12
  %10 = load i8, ptr @verbose, align 1, !tbaa !11, !range !38, !noundef !39
  %11 = trunc i8 %10 to i1
  br i1 %11, label %12, label %17

12:                                               ; preds = %3
  %13 = load ptr, ptr @stderr, align 8, !tbaa !25
  %14 = load ptr, ptr @prte_tool_basename, align 8, !tbaa !22
  %15 = load i32, ptr %4, align 4, !tbaa !4
  %16 = call i32 (ptr, ptr, ...) @fprintf(ptr noundef %13, ptr noundef @.str.137, ptr noundef %14, i32 noundef %15) #12
  br label %17

17:                                               ; preds = %12, %3
  call void @PMIx_Load_procid(ptr noundef %8, ptr noundef @spawnednspace, i32 noundef -2)
  %18 = call i32 @PMIx_Info_load(ptr noundef %9, ptr noundef @.str.138, ptr noundef %4, i16 noundef zeroext 6)
  %19 = call i32 @PMIx_Job_control(ptr noundef %8, i64 noundef 1, ptr noundef %9, i64 noundef 1, ptr noundef null, ptr noundef null)
  store i32 %19, ptr %7, align 4, !tbaa !4
  %20 = load i32, ptr %7, align 4, !tbaa !4
  %21 = icmp ne i32 0, %20
  br i1 %21, label %22, label %31

22:                                               ; preds = %17
  %23 = load i32, ptr %7, align 4, !tbaa !4
  %24 = icmp ne i32 -157, %23
  br i1 %24, label %25, label %31

25:                                               ; preds = %22
  %26 = load ptr, ptr @stderr, align 8, !tbaa !25
  %27 = load i32, ptr %4, align 4, !tbaa !4
  %28 = load i32, ptr %7, align 4, !tbaa !4
  %29 = call ptr @PMIx_Error_string(i32 noundef %28)
  %30 = call i32 (ptr, ptr, ...) @fprintf(ptr noundef %26, ptr noundef @.str.139, i32 noundef %27, ptr noundef @spawnednspace, ptr noundef %29) #12
  br label %31

31:                                               ; preds = %25, %22, %17
  call void @llvm.lifetime.end.p0(i64 552, ptr %9) #12
  call void @llvm.lifetime.end.p0(i64 260, ptr %8) #12
  call void @llvm.lifetime.end.p0(i64 4, ptr %7) #12
  ret void
}