; Function Attrs: nounwind uwtable
define internal void @signal_forward_callback(i32 noundef %0, i16 signext %1, ptr readnone captures(none) %2) #0 {
  %4 = alloca i32, align 4
  %5 = alloca %struct.pmix_proc, align 4
  %6 = alloca %struct.pmix_info, align 8
  store i32 %0, ptr %4, align 4, !tbaa !9
  call void @llvm.lifetime.start.p0(i64 260, ptr nonnull %5) #23
  call void @llvm.lifetime.start.p0(i64 552, ptr nonnull %6) #23
  call void @PMIx_Load_procid(ptr noundef nonnull %5, ptr noundef nonnull @spawnednspace, i32 noundef -2) #23
  %7 = call i32 @PMIx_Info_load(ptr noundef nonnull %6, ptr noundef nonnull @.str.138, ptr noundef nonnull %4, i16 noundef zeroext 6) #23
  %8 = call i32 @PMIx_Job_control(ptr noundef nonnull %5, i64 noundef 1, ptr noundef nonnull %6, i64 noundef 1, ptr noundef null, ptr noundef null) #23
  switch i32 %8, label %9 [
    i32 -157, label %14
    i32 0, label %14
  ]

9:                                                ; preds = %3
  %10 = load ptr, ptr @stderr, align 8, !tbaa !26
  %11 = load i32, ptr %4, align 4, !tbaa !9
  %12 = call ptr @PMIx_Error_string(i32 noundef %8) #23
  %13 = call i32 (ptr, ptr, ...) @fprintf(ptr noundef %10, ptr noundef nonnull @.str.139, i32 noundef %11, ptr noundef nonnull @spawnednspace, ptr noundef %12) #27
  br label %14

14:                                               ; preds = %3, %3, %9
  call void @llvm.lifetime.end.p0(i64 552, ptr nonnull %6) #23
  call void @llvm.lifetime.end.p0(i64 260, ptr nonnull %5) #23
  ret void
}